target datalayout = "e-m:e-p270:32:32-p271:32:32-p272:64:64-i64:64-i128:128-f80:128-n8:16:32:64-S128"
target triple = "x86_64-pc-linux-gnu"

%struct.MergeAppendState = type { %struct.PlanState, ptr, i32, i32, ptr, ptr, ptr, i8, ptr, ptr }
%struct.PlanState = type { i32, ptr, ptr, ptr, ptr, ptr, ptr, ptr, ptr, ptr, ptr, ptr, ptr, ptr, ptr, ptr, ptr, ptr, i8, ptr, ptr, ptr, ptr, ptr, i8, i8, i8, i8, i8, i8, i8, i8 }
%struct.SortSupportData = type { ptr, i32, i8, i8, i16, ptr, ptr, i8, ptr, ptr, ptr }
%struct.TupleTableSlot = type { i32, i16, i16, ptr, ptr, ptr, ptr, ptr, %struct.ItemPointerData, i32 }
%struct.ItemPointerData = type { %struct.BlockIdData, i16 }
%struct.BlockIdData = type { i16, i16 }

; Function Attrs: inlinehint nounwind uwtable
define internal void @slot_getsomeattrs(ptr noundef %0, i32 noundef %1) #2 {
  %3 = alloca ptr, align 8
  %4 = alloca i32, align 4
  store ptr %0, ptr %3, align 8
  store i32 %1, ptr %4, align 4
  %5 = load ptr, ptr %3, align 8
  %6 = getelementptr inbounds nuw %struct.TupleTableSlot, ptr %5, i32 0, i32 2
  %7 = load i16, ptr %6, align 2
  %8 = sext i16 %7 to i32
  %9 = load i32, ptr %4, align 4
  %10 = icmp slt i32 %8, %9
  br i1 %10, label %11, label %14

11:                                               ; preds = %2
  %12 = load ptr, ptr %3, align 8
  %13 = load i32, ptr %4, align 4
  call void @slot_getsomeattrs_int(ptr noundef %12, i32 noundef %13)
  br label %14

14:                                               ; preds = %11, %2
  ret void
}

; Function Attrs: inlinehint nounwind uwtable
define internal i32 @ApplySortComparator(i64 noundef %0, i1 noundef zeroext %1, i64 noundef %2, i1 noundef zeroext %3, ptr noundef %4) #2 {
  %6 = alloca i64, align 8
  %7 = alloca i8, align 1
  %8 = alloca i64, align 8
  %9 = alloca i8, align 1
  %10 = alloca ptr, align 8
  %11 = alloca i32, align 4
  store i64 %0, ptr %6, align 8
  %12 = zext i1 %1 to i8
  store i8 %12, ptr %7, align 1
  store i64 %2, ptr %8, align 8
  %13 = zext i1 %3 to i8
  store i8 %13, ptr %9, align 1
  store ptr %4, ptr %10, align 8
  call void @llvm.lifetime.start.p0(i64 4, ptr %11) #5
  %14 = load i8, ptr %7, align 1, !range !4, !noundef !5
  %15 = trunc i8 %14 to i1
  br i1 %15, label %16, label %29

16:                                               ; preds = %5
  %17 = load i8, ptr %9, align 1, !range !4, !noundef !5
  %18 = trunc i8 %17 to i1
  br i1 %18, label %19, label %20

19:                                               ; preds = %16
  store i32 0, ptr %11, align 4
  br label %28

20:                                               ; preds = %16
  %21 = load ptr, ptr %10, align 8
  %22 = getelementptr inbounds nuw %struct.SortSupportData, ptr %21, i32 0, i32 3
  %23 = load i8, ptr %22, align 1, !range !4, !noundef !5
  %24 = trunc i8 %23 to i1
  br i1 %24, label %25, label %26

25:                                               ; preds = %20
  store i32 -1, ptr %11, align 4
  br label %27

26:                                               ; preds = %20
  store i32 1, ptr %11, align 4
  br label %27

27:                                               ; preds = %26, %25
  br label %28

28:                                               ; preds = %27, %19
  br label %63

29:                                               ; preds = %5
  %30 = load i8, ptr %9, align 1, !range !4, !noundef !5
  %31 = trunc i8 %30 to i1
  br i1 %31, label %32, label %40

32:                                               ; preds = %29
  %33 = load ptr, ptr %10, align 8
  %34 = getelementptr inbounds nuw %struct.SortSupportData, ptr %33, i32 0, i32 3
  %35 = load i8, ptr %34, align 1, !range !4, !noundef !5
  %36 = trunc i8 %35 to i1
  br i1 %36, label %37, label %38

37:                                               ; preds = %32
  store i32 1, ptr %11, align 4
  br label %39

38:                                               ; preds = %32
  store i32 -1, ptr %11, align 4
  br label %39

39:                                               ; preds = %38, %37
  br label %62

40:                                               ; preds = %29
  %41 = load ptr, ptr %10, align 8
  %42 = getelementptr inbounds nuw %struct.SortSupportData, ptr %41, i32 0, i32 6
  %43 = load ptr, ptr %42, align 8
  %44 = load i64, ptr %6, align 8
  %45 = load i64, ptr %8, align 8
  %46 = load ptr, ptr %10, align 8
  %47 = call i32 %43(i64 noundef %44, i64 noundef %45, ptr noundef %46)
  store i32 %47, ptr %11, align 4
  %48 = load ptr, ptr %10, align 8
  %49 = getelementptr inbounds nuw %struct.SortSupportData, ptr %48, i32 0, i32 2
  %50 = load i8, ptr %49, align 4, !range !4, !noundef !5
  %51 = trunc i8 %50 to i1
  br i1 %51, label %52, label %61

52:                                               ; preds = %40
  %53 = load i32, ptr %11, align 4
  %54 = icmp slt i32 %53, 0
  br i1 %54, label %55, label %56

55:                                               ; preds = %52
  br label %59

56:                                               ; preds = %52
  %57 = load i32, ptr %11, align 4
  %58 = sub i32 0, %57
  br label %59

59:                                               ; preds = %56, %55
  %60 = phi i32 [ 1, %55 ], [ %58, %56 ]
  store i32 %60, ptr %11, align 4
  br label %61

61:                                               ; preds = %59, %40
  br label %62

62:                                               ; preds = %61, %39
  br label %63

63:                                               ; preds = %62, %28
  %64 = load i32, ptr %11, align 4
  call void @llvm.lifetime.end.p0(i64 4, ptr %11) #5
  ret i32 %64
}

; Function Attrs: inlinehint nounwind uwtable
define internal i64 @slot_getattr(ptr noundef %0, i32 noundef %1, ptr noundef %2) #2 {
  %4 = alloca ptr, align 8
  %5 = alloca i32, align 4
  %6 = alloca ptr, align 8
  store ptr %0, ptr %4, align 8
  store i32 %1, ptr %5, align 4
  store ptr %2, ptr %6, align 8
  %7 = load i32, ptr %5, align 4
  %8 = load ptr, ptr %4, align 8
  %9 = getelementptr inbounds nuw %struct.TupleTableSlot, ptr %8, i32 0, i32 2
  %10 = load i16, ptr %9, align 2
  %11 = sext i16 %10 to i32
  %12 = icmp sgt i32 %7, %11
  br i1 %12, label %13, label %16

13:                                               ; preds = %3
  %14 = load ptr, ptr %4, align 8
  %15 = load i32, ptr %5, align 4
  call void @slot_getsomeattrs(ptr noundef %14, i32 noundef %15)
  br label %16

16:                                               ; preds = %13, %3
  %17 = load ptr, ptr %4, align 8
  %18 = getelementptr inbounds nuw %struct.TupleTableSlot, ptr %17, i32 0, i32 6
  %19 = load ptr, ptr %18, align 8
  %20 = load i32, ptr %5, align 4
  %21 = sub i32 %20, 1
  %22 = sext i32 %21 to i64
  %23 = getelementptr inbounds i8, ptr %19, i64 %22
  %24 = load i8, ptr %23, align 1, !range !4, !noundef !5
  %25 = trunc i8 %24 to i1
  %26 = load ptr, ptr %6, align 8
  %27 = zext i1 %25 to i8
  store i8 %27, ptr %26, align 1
  %28 = load ptr, ptr %4, align 8
  %29 = getelementptr inbounds nuw %struct.TupleTableSlot, ptr %28, i32 0, i32 5
  %30 = load ptr, ptr %29, align 8
  %31 = load i32, ptr %5, align 4
  %32 = sub i32 %31, 1
  %33 = sext i32 %32 to i64
  %34 = getelementptr inbounds i64, ptr %30, i64 %33
  %35 = load i64, ptr %34, align 8
  ret i64 %35
}

; Function Attrs: inlinehint nounwind uwtable
define internal i32 @DatumGetInt32(i64 noundef %0) #2 {
  %2 = alloca i64, align 8
  store i64 %0, ptr %2, align 8
  %3 = load i64, ptr %2, align 8
  %4 = trunc i64 %3 to i32
  ret i32 %4
}

; Function Attrs: nounwind uwtable
define internal i32 @heap_compare_slots(i64 noundef %0, i64 noundef %1, ptr noundef %2) #0 {
  %4 = alloca i32, align 4
  %5 = alloca i64, align 8
  %6 = alloca i64, align 8
  %7 = alloca ptr, align 8
  %8 = alloca ptr, align 8
  %9 = alloca i32, align 4
  %10 = alloca i32, align 4
  %11 = alloca ptr, align 8
  %12 = alloca ptr, align 8
  %13 = alloca i32, align 4
  %14 = alloca ptr, align 8
  %15 = alloca i16, align 2
  %16 = alloca i64, align 8
  %17 = alloca i64, align 8
  %18 = alloca i8, align 1
  %19 = alloca i8, align 1
  %20 = alloca i32, align 4
  %21 = alloca i32, align 4
  store i64 %0, ptr %5, align 8
  store i64 %1, ptr %6, align 8
  store ptr %2, ptr %7, align 8
  call void @llvm.lifetime.start.p0(i64 8, ptr %8) #5
  %22 = load ptr, ptr %7, align 8
  store ptr %22, ptr %8, align 8
  call void @llvm.lifetime.start.p0(i64 4, ptr %9) #5
  %23 = load i64, ptr %5, align 8
  %24 = call i32 @DatumGetInt32(i64 noundef %23)
  store i32 %24, ptr %9, align 4
  call void @llvm.lifetime.start.p0(i64 4, ptr %10) #5
  %25 = load i64, ptr %6, align 8
  %26 = call i32 @DatumGetInt32(i64 noundef %25)
  store i32 %26, ptr %10, align 4
  call void @llvm.lifetime.start.p0(i64 8, ptr %11) #5
  %27 = load ptr, ptr %8, align 8
  %28 = getelementptr inbounds nuw %struct.MergeAppendState, ptr %27, i32 0, i32 5
  %29 = load ptr, ptr %28, align 8
  %30 = load i32, ptr %9, align 4
  %31 = sext i32 %30 to i64
  %32 = getelementptr inbounds ptr, ptr %29, i64 %31
  %33 = load ptr, ptr %32, align 8
  store ptr %33, ptr %11, align 8
  call void @llvm.lifetime.start.p0(i64 8, ptr %12) #5
  %34 = load ptr, ptr %8, align 8
  %35 = getelementptr inbounds nuw %struct.MergeAppendState, ptr %34, i32 0, i32 5
  %36 = load ptr, ptr %35, align 8
  %37 = load i32, ptr %10, align 4
  %38 = sext i32 %37 to i64
  %39 = getelementptr inbounds ptr, ptr %36, i64 %38
  %40 = load ptr, ptr %39, align 8
  store ptr %40, ptr %12, align 8
  call void @llvm.lifetime.start.p0(i64 4, ptr %13) #5
  store i32 0, ptr %13, align 4
  br label %41

41:                                               ; preds = %89, %3
  %42 = load i32, ptr %13, align 4
  %43 = load ptr, ptr %8, align 8
  %44 = getelementptr inbounds nuw %struct.MergeAppendState, ptr %43, i32 0, i32 3
  %45 = load i32, ptr %44, align 4
  %46 = icmp slt i32 %42, %45
  br i1 %46, label %47, label %92

47:                                               ; preds = %41
  call void @llvm.lifetime.start.p0(i64 8, ptr %14) #5
  %48 = load ptr, ptr %8, align 8
  %49 = getelementptr inbounds nuw %struct.MergeAppendState, ptr %48, i32 0, i32 4
  %50 = load ptr, ptr %49, align 8
  %51 = load i32, ptr %13, align 4
  %52 = sext i32 %51 to i64
  %53 = getelementptr inbounds %struct.SortSupportData, ptr %50, i64 %52
  store ptr %53, ptr %14, align 8
  call void @llvm.lifetime.start.p0(i64 2, ptr %15) #5
  %54 = load ptr, ptr %14, align 8
  %55 = getelementptr inbounds nuw %struct.SortSupportData, ptr %54, i32 0, i32 4
  %56 = load i16, ptr %55, align 2
  store i16 %56, ptr %15, align 2
  call void @llvm.lifetime.start.p0(i64 8, ptr %16) #5
  call void @llvm.lifetime.start.p0(i64 8, ptr %17) #5
  call void @llvm.lifetime.start.p0(i64 1, ptr %18) #5
  call void @llvm.lifetime.start.p0(i64 1, ptr %19) #5
  call void @llvm.lifetime.start.p0(i64 4, ptr %20) #5
  %57 = load ptr, ptr %11, align 8
  %58 = load i16, ptr %15, align 2
  %59 = sext i16 %58 to i32
  %60 = call i64 @slot_getattr(ptr noundef %57, i32 noundef %59, ptr noundef %18)
  store i64 %60, ptr %16, align 8
  %61 = load ptr, ptr %12, align 8
  %62 = load i16, ptr %15, align 2
  %63 = sext i16 %62 to i32
  %64 = call i64 @slot_getattr(ptr noundef %61, i32 noundef %63, ptr noundef %19)
  store i64 %64, ptr %17, align 8
  %65 = load i64, ptr %16, align 8
  %66 = load i8, ptr %18, align 1, !range !4, !noundef !5
  %67 = trunc i8 %66 to i1
  %68 = load i64, ptr %17, align 8
  %69 = load i8, ptr %19, align 1, !range !4, !noundef !5
  %70 = trunc i8 %69 to i1
  %71 = load ptr, ptr %14, align 8
  %72 = call i32 @ApplySortComparator(i64 noundef %65, i1 noundef zeroext %67, i64 noundef %68, i1 noundef zeroext %70, ptr noundef %71)
  store i32 %72, ptr %20, align 4
  %73 = load i32, ptr %20, align 4
  %74 = icmp ne i32 %73, 0
  br i1 %74, label %75, label %85

75:                                               ; preds = %47
  %76 = load i32, ptr %20, align 4
  %77 = icmp slt i32 %76, 0
  br i1 %77, label %78, label %79

78:                                               ; preds = %75
  br label %82

79:                                               ; preds = %75
  %80 = load i32, ptr %20, align 4
  %81 = sub i32 0, %80
  br label %82

82:                                               ; preds = %79, %78
  %83 = phi i32 [ 1, %78 ], [ %81, %79 ]
  store i32 %83, ptr %20, align 4
  %84 = load i32, ptr %20, align 4
  store i32 %84, ptr %4, align 4
  store i32 1, ptr %21, align 4
  br label %86

85:                                               ; preds = %47
  store i32 0, ptr %21, align 4
  br label %86

86:                                               ; preds = %85, %82
  call void @llvm.lifetime.end.p0(i64 4, ptr %20) #5
  call void @llvm.lifetime.end.p0(i64 1, ptr %19) #5
  call void @llvm.lifetime.end.p0(i64 1, ptr %18) #5
  call void @llvm.lifetime.end.p0(i64 8, ptr %17) #5
  call void @llvm.lifetime.end.p0(i64 8, ptr %16) #5
  call void @llvm.lifetime.end.p0(i64 2, ptr %15) #5
  call void @llvm.lifetime.end.p0(i64 8, ptr %14) #5
  %87 = load i32, ptr %21, align 4
  switch i32 %87, label %93 [
    i32 0, label %88
  ]

88:                                               ; preds = %86
  br label %89

89:                                               ; preds = %88
  %90 = load i32, ptr %13, align 4
  %91 = add i32 %90, 1
  store i32 %91, ptr %13, align 4
  br label %41, !llvm.loop !10

92:                                               ; preds = %41
  store i32 0, ptr %4, align 4
  store i32 1, ptr %21, align 4
  br label %93

93:                                               ; preds = %92, %86
  call void @llvm.lifetime.end.p0(i64 4, ptr %13) #5
  call void @llvm.lifetime.end.p0(i64 8, ptr %12) #5
  call void @llvm.lifetime.end.p0(i64 8, ptr %11) #5
  call void @llvm.lifetime.end.p0(i64 4, ptr %10) #5
  call void @llvm.lifetime.end.p0(i64 4, ptr %9) #5
  call void @llvm.lifetime.end.p0(i64 8, ptr %8) #5
  %94 = load i32, ptr %4, align 4
  ret i32 %94
}